; ModuleID = '55/1268.cpp'
source_filename = "55/1268.cpp"
target datalayout = "e-m:e-p270:32:32-p271:32:32-p272:64:64-i64:64-f80:128-n8:16:32:64-S128"
target triple = "x86_64-pc-linux-gnu"

%"class.std::ios_base::Init" = type { i8 }
%"class.std::basic_istream" = type { i32 (...)**, i64, %"class.std::basic_ios" }
%"class.std::basic_ios" = type { %"class.std::ios_base", %"class.std::basic_ostream"*, i8, i8, %"class.std::basic_streambuf"*, %"class.std::ctype"*, %"class.std::num_put"*, %"class.std::num_get"* }
%"class.std::ios_base" = type { i32 (...)**, i64, i64, i32, i32, i32, %"struct.std::ios_base::_Callback_list"*, %"struct.std::ios_base::_Words", [8 x %"struct.std::ios_base::_Words"], i32, %"struct.std::ios_base::_Words"*, %"class.std::locale" }
%"struct.std::ios_base::_Callback_list" = type { %"struct.std::ios_base::_Callback_list"*, void (i32, %"class.std::ios_base"*, i32)*, i32, i32 }
%"struct.std::ios_base::_Words" = type { i8*, i64 }
%"class.std::locale" = type { %"class.std::locale::_Impl"* }
%"class.std::locale::_Impl" = type { i32, %"class.std::locale::facet"**, i64, %"class.std::locale::facet"**, i8** }
%"class.std::locale::facet" = type <{ i32 (...)**, i32, [4 x i8] }>
%"class.std::basic_ostream" = type { i32 (...)**, %"class.std::basic_ios" }
%"class.std::basic_streambuf" = type { i32 (...)**, i8*, i8*, i8*, i8*, i8*, i8*, %"class.std::locale" }
%"class.std::ctype" = type <{ %"class.std::locale::facet.base", [4 x i8], %struct.__locale_struct*, i8, [7 x i8], i32*, i32*, i16*, i8, [256 x i8], [256 x i8], i8, [6 x i8] }>
%"class.std::locale::facet.base" = type <{ i32 (...)**, i32 }>
%struct.__locale_struct = type { [13 x %struct.__locale_data*], i16*, i32*, i32*, [13 x i8*] }
%struct.__locale_data = type opaque
%"class.std::num_put" = type { %"class.std::locale::facet.base", [4 x i8] }
%"class.std::num_get" = type { %"class.std::locale::facet.base", [4 x i8] }

$_ZSt3powIdiEN9__gnu_cxx11__promote_2IT_T0_NS0_9__promoteIS2_Xsr3std12__is_integerIS2_EE7__valueEE6__typeENS4_IS3_Xsr3std12__is_integerIS3_EE7__valueEE6__typeEE6__typeES2_S3_ = comdat any

@_ZStL8__ioinit = internal global %"class.std::ios_base::Init" zeroinitializer, align 1
@__dso_handle = external hidden global i8
@_ZSt3cin = external dso_local global %"class.std::basic_istream", align 8
@_ZSt4cout = external dso_local global %"class.std::basic_ostream", align 8
@llvm.global_ctors = appending global [1 x { i32, void ()*, i8* }] [{ i32, void ()*, i8* } { i32 65535, void ()* @_GLOBAL__sub_I_1268.cpp, i8* null }]

; Function Attrs: noinline uwtable
define internal void @__cxx_global_var_init() #0 section ".text.startup" {
  call void @_ZNSt8ios_base4InitC1Ev(%"class.std::ios_base::Init"* @_ZStL8__ioinit)
  %1 = call i32 @__cxa_atexit(void (i8*)* bitcast (void (%"class.std::ios_base::Init"*)* @_ZNSt8ios_base4InitD1Ev to void (i8*)*), i8* getelementptr inbounds (%"class.std::ios_base::Init", %"class.std::ios_base::Init"* @_ZStL8__ioinit, i32 0, i32 0), i8* @__dso_handle) #3
  ret void
}

declare dso_local void @_ZNSt8ios_base4InitC1Ev(%"class.std::ios_base::Init"*) unnamed_addr #1

; Function Attrs: nounwind
declare dso_local void @_ZNSt8ios_base4InitD1Ev(%"class.std::ios_base::Init"*) unnamed_addr #2

; Function Attrs: nounwind
declare dso_local i32 @__cxa_atexit(void (i8*)*, i8*, i8*) #3

; Function Attrs: noinline norecurse uwtable
define dso_local i32 @main() #4 {
  %1 = alloca i32, align 4
  %2 = alloca i32, align 4
  %3 = alloca i32, align 4
  %4 = alloca i32, align 4
  %5 = alloca i32, align 4
  %6 = alloca i32, align 4
  %7 = alloca i32, align 4
  %8 = alloca [25 x i8], align 16
  %9 = alloca [20 x i8], align 16
  %10 = alloca [20 x i32], align 16
  store i32 0, i32* %1, align 4
  store i32 0, i32* %6, align 4
  %11 = call dereferenceable(280) %"class.std::basic_istream"* @_ZNSirsERi(%"class.std::basic_istream"* @_ZSt3cin, i32* dereferenceable(4) %2)
  %12 = getelementptr inbounds [20 x i8], [20 x i8]* %9, i64 0, i64 0
  %13 = call dereferenceable(280) %"class.std::basic_istream"* @_ZStrsIcSt11char_traitsIcEERSt13basic_istreamIT_T0_ES6_PS3_(%"class.std::basic_istream"* dereferenceable(280) %11, i8* %12)
  %14 = call dereferenceable(280) %"class.std::basic_istream"* @_ZNSirsERi(%"class.std::basic_istream"* %13, i32* dereferenceable(4) %3)
  %15 = getelementptr inbounds [20 x i8], [20 x i8]* %9, i64 0, i64 0
  %16 = call i64 @strlen(i8* %15) #7
  %17 = trunc i64 %16 to i32
  store i32 %17, i32* %4, align 4
  store i32 0, i32* %5, align 4
  br label %18

18:                                               ; preds = %95, %0
  %19 = load i32, i32* %5, align 4
  %20 = load i32, i32* %4, align 4
  %21 = sub nsw i32 %20, 1
  %22 = icmp sle i32 %19, %21
  br i1 %22, label %23, label %98

23:                                               ; preds = %18
  %24 = load i32, i32* %5, align 4
  %25 = sext i32 %24 to i64
  %26 = getelementptr inbounds [20 x i8], [20 x i8]* %9, i64 0, i64 %25
  %27 = load i8, i8* %26, align 1
  %28 = sext i8 %27 to i32
  %29 = call i32 @isdigit(i32 %28) #7
  %30 = icmp ne i32 %29, 0
  br i1 %30, label %31, label %49

31:                                               ; preds = %23
  %32 = load i32, i32* %6, align 4
  %33 = load i32, i32* %5, align 4
  %34 = sext i32 %33 to i64
  %35 = getelementptr inbounds [20 x i8], [20 x i8]* %9, i64 0, i64 %34
  %36 = load i8, i8* %35, align 1
  %37 = sext i8 %36 to i32
  %38 = sub nsw i32 %37, 48
  %39 = load i32, i32* %2, align 4
  %40 = sitofp i32 %39 to double
  %41 = load i32, i32* %4, align 4
  %42 = sub nsw i32 %41, 1
  %43 = load i32, i32* %5, align 4
  %44 = sub nsw i32 %42, %43
  %45 = call double @_ZSt3powIdiEN9__gnu_cxx11__promote_2IT_T0_NS0_9__promoteIS2_Xsr3std12__is_integerIS2_EE7__valueEE6__typeENS4_IS3_Xsr3std12__is_integerIS3_EE7__valueEE6__typeEE6__typeES2_S3_(double %40, i32 %44)
  %46 = fptosi double %45 to i32
  %47 = mul nsw i32 %38, %46
  %48 = add nsw i32 %32, %47
  store i32 %48, i32* %6, align 4
  br label %94

49:                                               ; preds = %23
  %50 = load i32, i32* %5, align 4
  %51 = sext i32 %50 to i64
  %52 = getelementptr inbounds [20 x i8], [20 x i8]* %9, i64 0, i64 %51
  %53 = load i8, i8* %52, align 1
  %54 = sext i8 %53 to i32
  %55 = call i32 @islower(i32 %54) #7
  %56 = icmp ne i32 %55, 0
  br i1 %56, label %57, label %75

57:                                               ; preds = %49
  %58 = load i32, i32* %6, align 4
  %59 = load i32, i32* %5, align 4
  %60 = sext i32 %59 to i64
  %61 = getelementptr inbounds [20 x i8], [20 x i8]* %9, i64 0, i64 %60
  %62 = load i8, i8* %61, align 1
  %63 = sext i8 %62 to i32
  %64 = sub nsw i32 %63, 87
  %65 = load i32, i32* %2, align 4
  %66 = sitofp i32 %65 to double
  %67 = load i32, i32* %4, align 4
  %68 = sub nsw i32 %67, 1
  %69 = load i32, i32* %5, align 4
  %70 = sub nsw i32 %68, %69
  %71 = call double @_ZSt3powIdiEN9__gnu_cxx11__promote_2IT_T0_NS0_9__promoteIS2_Xsr3std12__is_integerIS2_EE7__valueEE6__typeENS4_IS3_Xsr3std12__is_integerIS3_EE7__valueEE6__typeEE6__typeES2_S3_(double %66, i32 %70)
  %72 = fptosi double %71 to i32
  %73 = mul nsw i32 %64, %72
  %74 = add nsw i32 %58, %73
  store i32 %74, i32* %6, align 4
  br label %93

75:                                               ; preds = %49
  %76 = load i32, i32* %6, align 4
  %77 = load i32, i32* %5, align 4
  %78 = sext i32 %77 to i64
  %79 = getelementptr inbounds [20 x i8], [20 x i8]* %9, i64 0, i64 %78
  %80 = load i8, i8* %79, align 1
  %81 = sext i8 %80 to i32
  %82 = sub nsw i32 %81, 55
  %83 = load i32, i32* %2, align 4
  %84 = sitofp i32 %83 to double
  %85 = load i32, i32* %4, align 4
  %86 = sub nsw i32 %85, 1
  %87 = load i32, i32* %5, align 4
  %88 = sub nsw i32 %86, %87
  %89 = call double @_ZSt3powIdiEN9__gnu_cxx11__promote_2IT_T0_NS0_9__promoteIS2_Xsr3std12__is_integerIS2_EE7__valueEE6__typeENS4_IS3_Xsr3std12__is_integerIS3_EE7__valueEE6__typeEE6__typeES2_S3_(double %84, i32 %88)
  %90 = fptosi double %89 to i32
  %91 = mul nsw i32 %82, %90
  %92 = add nsw i32 %76, %91
  store i32 %92, i32* %6, align 4
  br label %93

93:                                               ; preds = %75, %57
  br label %94

94:                                               ; preds = %93, %31
  br label %95

95:                                               ; preds = %94
  %96 = load i32, i32* %5, align 4
  %97 = add nsw i32 %96, 1
  store i32 %97, i32* %5, align 4
  br label %18

98:                                               ; preds = %18
  store i32 0, i32* %5, align 4
  br label %99

99:                                               ; preds = %130, %98
  %100 = load i32, i32* %6, align 4
  %101 = load i32, i32* %3, align 4
  %102 = icmp sge i32 %100, %101
  br i1 %102, label %103, label %133

103:                                              ; preds = %99
  %104 = load i32, i32* %6, align 4
  %105 = load i32, i32* %3, align 4
  %106 = srem i32 %104, %105
  %107 = icmp slt i32 %106, 10
  br i1 %107, label %108, label %117

108:                                              ; preds = %103
  %109 = load i32, i32* %6, align 4
  %110 = load i32, i32* %3, align 4
  %111 = srem i32 %109, %110
  %112 = add nsw i32 %111, 48
  %113 = trunc i32 %112 to i8
  %114 = load i32, i32* %5, align 4
  %115 = sext i32 %114 to i64
  %116 = getelementptr inbounds [25 x i8], [25 x i8]* %8, i64 0, i64 %115
  store i8 %113, i8* %116, align 1
  br label %126

117:                                              ; preds = %103
  %118 = load i32, i32* %6, align 4
  %119 = load i32, i32* %3, align 4
  %120 = srem i32 %118, %119
  %121 = add nsw i32 %120, 55
  %122 = trunc i32 %121 to i8
  %123 = load i32, i32* %5, align 4
  %124 = sext i32 %123 to i64
  %125 = getelementptr inbounds [25 x i8], [25 x i8]* %8, i64 0, i64 %124
  store i8 %122, i8* %125, align 1
  br label %126

126:                                              ; preds = %117, %108
  %127 = load i32, i32* %6, align 4
  %128 = load i32, i32* %3, align 4
  %129 = sdiv i32 %127, %128
  store i32 %129, i32* %6, align 4
  br label %130

130:                                              ; preds = %126
  %131 = load i32, i32* %5, align 4
  %132 = add nsw i32 %131, 1
  store i32 %132, i32* %5, align 4
  br label %99

133:                                              ; preds = %99
  %134 = load i32, i32* %6, align 4
  %135 = icmp slt i32 %134, 10
  br i1 %135, label %136, label %143

136:                                              ; preds = %133
  %137 = load i32, i32* %6, align 4
  %138 = add nsw i32 %137, 48
  %139 = trunc i32 %138 to i8
  %140 = load i32, i32* %5, align 4
  %141 = sext i32 %140 to i64
  %142 = getelementptr inbounds [25 x i8], [25 x i8]* %8, i64 0, i64 %141
  store i8 %139, i8* %142, align 1
  br label %150

143:                                              ; preds = %133
  %144 = load i32, i32* %6, align 4
  %145 = add nsw i32 %144, 55
  %146 = trunc i32 %145 to i8
  %147 = load i32, i32* %5, align 4
  %148 = sext i32 %147 to i64
  %149 = getelementptr inbounds [25 x i8], [25 x i8]* %8, i64 0, i64 %148
  store i8 %146, i8* %149, align 1
  br label %150

150:                                              ; preds = %143, %136
  br label %151

151:                                              ; preds = %160, %150
  %152 = load i32, i32* %5, align 4
  %153 = icmp sge i32 %152, 0
  br i1 %153, label %154, label %163

154:                                              ; preds = %151
  %155 = load i32, i32* %5, align 4
  %156 = sext i32 %155 to i64
  %157 = getelementptr inbounds [25 x i8], [25 x i8]* %8, i64 0, i64 %156
  %158 = load i8, i8* %157, align 1
  %159 = call dereferenceable(272) %"class.std::basic_ostream"* @_ZStlsISt11char_traitsIcEERSt13basic_ostreamIcT_ES5_c(%"class.std::basic_ostream"* dereferenceable(272) @_ZSt4cout, i8 signext %158)
  br label %160

160:                                              ; preds = %154
  %161 = load i32, i32* %5, align 4
  %162 = add nsw i32 %161, -1
  store i32 %162, i32* %5, align 4
  br label %151

163:                                              ; preds = %151
  ret i32 0
}

declare dso_local dereferenceable(280) %"class.std::basic_istream"* @_ZStrsIcSt11char_traitsIcEERSt13basic_istreamIT_T0_ES6_PS3_(%"class.std::basic_istream"* dereferenceable(280), i8*) #1

declare dso_local dereferenceable(280) %"class.std::basic_istream"* @_ZNSirsERi(%"class.std::basic_istream"*, i32* dereferenceable(4)) #1

; Function Attrs: nounwind readonly
declare dso_local i64 @strlen(i8*) #5

; Function Attrs: nounwind readonly
declare dso_local i32 @isdigit(i32) #5

; Function Attrs: noinline nounwind uwtable
define linkonce_odr dso_local double @_ZSt3powIdiEN9__gnu_cxx11__promote_2IT_T0_NS0_9__promoteIS2_Xsr3std12__is_integerIS2_EE7__valueEE6__typeENS4_IS3_Xsr3std12__is_integerIS3_EE7__valueEE6__typeEE6__typeES2_S3_(double %0, i32 %1) #6 comdat {
  %3 = alloca double, align 8
  %4 = alloca i32, align 4
  store double %0, double* %3, align 8
  store i32 %1, i32* %4, align 4
  %5 = load double, double* %3, align 8
  %6 = load i32, i32* %4, align 4
  %7 = sitofp i32 %6 to double
  %8 = call double @pow(double %5, double %7) #3
  ret double %8
}

; Function Attrs: nounwind readonly
declare dso_local i32 @islower(i32) #5

declare dso_local dereferenceable(272) %"class.std::basic_ostream"* @_ZStlsISt11char_traitsIcEERSt13basic_ostreamIcT_ES5_c(%"class.std::basic_ostream"* dereferenceable(272), i8 signext) #1

; Function Attrs: nounwind
declare dso_local double @pow(double, double) #2

; Function Attrs: noinline uwtable
define internal void @_GLOBAL__sub_I_1268.cpp() #0 section ".text.startup" {
  call void @__cxx_global_var_init()
  ret void
}


!llvm.module.flags = !{!0}
!llvm.ident = !{!1}

!0 = !{i32 1, !"wchar_size", i32 4}
!1 = !{!"clang version 10.0.0-4ubuntu1 "}
