; ModuleID = 'source-C-CXX/54/1268.cpp'
source_filename = "source-C-CXX/54/1268.cpp"
target datalayout = "e-m:e-p270:32:32-p271:32:32-p272:64:64-i64:64-f80:128-n8:16:32:64-S128"
target triple = "x86_64-pc-linux-gnu"

%"class.std::ios_base::Init" = type { i8 }
%"class.std::basic_istream" = type { i32 (...)**, i64, %"class.std::basic_ios" }
%"class.std::basic_ios" = type { %"class.std::ios_base", %"class.std::basic_ostream"*, i8, i8, %"class.std::basic_streambuf"*, %"class.std::ctype"*, %"class.std::num_put"*, %"class.std::num_get"* }
%"class.std::ios_base" = type { i32 (...)**, i64, i64, i32, i32, i32, %"struct.std::ios_base::_Callback_list"*, %"struct.std::ios_base::_Words", [8 x %"struct.std::ios_base::_Words"], i32, %"struct.std::ios_base::_Words"*, %"class.std::locale" }
%"struct.std::ios_base::_Callback_list" = type { %"struct.std::ios_base::_Callback_list"*, void (i32, %"class.std::ios_base"*, i32)*, i32, i32 }
%"struct.std::ios_base::_Words" = type { i8*, i64 }
%"class.std::locale" = type { %"class.std::locale::_Impl"* }
%"class.std::locale::_Impl" = type { i32, %"class.std::locale::facet"**, i64, %"class.std::locale::facet"**, i8** }
%"class.std::locale::facet" = type <{ i32 (...)**, i32, [4 x i8] }>
%"class.std::basic_ostream" = type { i32 (...)**, %"class.std::basic_ios" }
%"class.std::basic_streambuf" = type { i32 (...)**, i8*, i8*, i8*, i8*, i8*, i8*, %"class.std::locale" }
%"class.std::ctype" = type <{ %"class.std::locale::facet.base", [4 x i8], %struct.__locale_struct*, i8, [7 x i8], i32*, i32*, i16*, i8, [256 x i8], [256 x i8], i8, [6 x i8] }>
%"class.std::locale::facet.base" = type <{ i32 (...)**, i32 }>
%struct.__locale_struct = type { [13 x %struct.__locale_data*], i16*, i32*, i32*, [13 x i8*] }
%struct.__locale_data = type opaque
%"class.std::num_put" = type { %"class.std::locale::facet.base", [4 x i8] }
%"class.std::num_get" = type { %"class.std::locale::facet.base", [4 x i8] }

@_ZStL8__ioinit = internal global %"class.std::ios_base::Init" zeroinitializer, align 1
@__dso_handle = external hidden global i8
@_ZSt3cin = external global %"class.std::basic_istream", align 8
@_ZSt4cout = external global %"class.std::basic_ostream", align 8
@llvm.global_ctors = appending global [1 x { i32, void ()*, i8* }] [{ i32, void ()*, i8* } { i32 65535, void ()* @_GLOBAL__sub_I_1268.cpp, i8* null }]

declare void @_ZNSt8ios_base4InitC1Ev(%"class.std::ios_base::Init"* nonnull align 1 dereferenceable(1)) unnamed_addr #0

; Function Attrs: nounwind
declare void @_ZNSt8ios_base4InitD1Ev(%"class.std::ios_base::Init"* nonnull align 1 dereferenceable(1)) unnamed_addr #1

; Function Attrs: nofree nounwind
declare i32 @__cxa_atexit(void (i8*)*, i8*, i8*) local_unnamed_addr #2

; Function Attrs: mustprogress norecurse sspstrong uwtable
define dso_local i32 @main() local_unnamed_addr #3 {
  %1 = alloca i8, align 1
  %2 = alloca i32, align 4
  %3 = alloca i32, align 4
  %4 = alloca [25 x i8], align 16
  %5 = alloca [20 x i8], align 16
  %6 = bitcast i32* %2 to i8*
  call void @llvm.lifetime.start.p0i8(i64 4, i8* nonnull %6) #9
  %7 = bitcast i32* %3 to i8*
  call void @llvm.lifetime.start.p0i8(i64 4, i8* nonnull %7) #9
  %8 = getelementptr inbounds [25 x i8], [25 x i8]* %4, i64 0, i64 0
  call void @llvm.lifetime.start.p0i8(i64 25, i8* nonnull %8) #9
  %9 = getelementptr inbounds [20 x i8], [20 x i8]* %5, i64 0, i64 0
  call void @llvm.lifetime.start.p0i8(i64 20, i8* nonnull %9) #9
  %10 = call nonnull align 8 dereferenceable(16) %"class.std::basic_istream"* @_ZNSirsERi(%"class.std::basic_istream"* nonnull align 8 dereferenceable(16) @_ZSt3cin, i32* nonnull align 4 dereferenceable(4) %2)
  call void @_ZSt17__istream_extractRSiPcl(%"class.std::basic_istream"* nonnull align 8 dereferenceable(16) %10, i8* nonnull %9, i64 20)
  %11 = call nonnull align 8 dereferenceable(16) %"class.std::basic_istream"* @_ZNSirsERi(%"class.std::basic_istream"* nonnull align 8 dereferenceable(16) %10, i32* nonnull align 4 dereferenceable(4) %3)
  %12 = call i64 @strlen(i8* noundef nonnull %9) #10
  %13 = trunc i64 %12 to i32
  %14 = icmp sgt i32 %13, 0
  br i1 %14, label %15, label %17

15:                                               ; preds = %0
  %16 = and i64 %12, 4294967295
  br label %21

17:                                               ; preds = %36, %0
  %18 = phi i32 [ 0, %0 ], [ %47, %36 ]
  %19 = load i32, i32* %3, align 4, !tbaa !5
  %20 = icmp slt i32 %18, %19
  br i1 %20, label %64, label %50

21:                                               ; preds = %15, %36
  %22 = phi i64 [ 0, %15 ], [ %48, %36 ]
  %23 = phi i32 [ 0, %15 ], [ %47, %36 ]
  %24 = getelementptr inbounds [20 x i8], [20 x i8]* %5, i64 0, i64 %22
  %25 = load i8, i8* %24, align 1, !tbaa !9
  %26 = sext i8 %25 to i32
  %27 = add nsw i32 %26, -48
  %28 = icmp ult i32 %27, 10
  br i1 %28, label %36, label %29

29:                                               ; preds = %21
  %30 = call i32 @islower(i32 %26) #10
  %31 = icmp eq i32 %30, 0
  br i1 %31, label %34, label %32

32:                                               ; preds = %29
  %33 = add nsw i32 %26, -87
  br label %36

34:                                               ; preds = %29
  %35 = add nsw i32 %26, -55
  br label %36

36:                                               ; preds = %21, %34, %32
  %37 = phi i32 [ %35, %34 ], [ %33, %32 ], [ %27, %21 ]
  %38 = load i32, i32* %2, align 4, !tbaa !5
  %39 = sitofp i32 %38 to double
  %40 = trunc i64 %22 to i32
  %41 = xor i32 %40, -1
  %42 = add i32 %41, %13
  %43 = sitofp i32 %42 to double
  %44 = call double @pow(double %39, double %43) #9
  %45 = fptosi double %44 to i32
  %46 = mul nsw i32 %37, %45
  %47 = add nsw i32 %46, %23
  %48 = add nuw nsw i64 %22, 1
  %49 = icmp eq i64 %48, %16
  br i1 %49, label %17, label %21, !llvm.loop !10

50:                                               ; preds = %17, %50
  %51 = phi i64 [ %60, %50 ], [ 0, %17 ]
  %52 = phi i32 [ %59, %50 ], [ %18, %17 ]
  %53 = srem i32 %52, %19
  %54 = icmp slt i32 %53, 10
  %55 = trunc i32 %53 to i8
  %56 = select i1 %54, i8 48, i8 55
  %57 = add i8 %56, %55
  %58 = getelementptr inbounds [25 x i8], [25 x i8]* %4, i64 0, i64 %51
  store i8 %57, i8* %58, align 1
  %59 = sdiv i32 %52, %19
  %60 = add nuw i64 %51, 1
  %61 = icmp slt i32 %59, %19
  br i1 %61, label %62, label %50, !llvm.loop !12

62:                                               ; preds = %50
  %63 = trunc i64 %60 to i32
  br label %64

64:                                               ; preds = %62, %17
  %65 = phi i32 [ %18, %17 ], [ %59, %62 ]
  %66 = phi i32 [ 0, %17 ], [ %63, %62 ]
  %67 = icmp slt i32 %65, 10
  %68 = trunc i32 %65 to i8
  %69 = select i1 %67, i8 48, i8 55
  %70 = add i8 %69, %68
  %71 = zext i32 %66 to i64
  %72 = getelementptr inbounds [25 x i8], [25 x i8]* %4, i64 0, i64 %71
  store i8 %70, i8* %72, align 1, !tbaa !9
  %73 = icmp sgt i32 %66, -1
  br i1 %73, label %74, label %83

74:                                               ; preds = %64
  %75 = zext i32 %66 to i64
  br label %76

76:                                               ; preds = %74, %76
  %77 = phi i64 [ %75, %74 ], [ %82, %76 ]
  %78 = getelementptr inbounds [25 x i8], [25 x i8]* %4, i64 0, i64 %77
  %79 = load i8, i8* %78, align 1, !tbaa !9
  call void @llvm.lifetime.start.p0i8(i64 1, i8* nonnull %1)
  store i8 %79, i8* %1, align 1, !tbaa !9
  %80 = call nonnull align 8 dereferenceable(8) %"class.std::basic_ostream"* @_ZSt16__ostream_insertIcSt11char_traitsIcEERSt13basic_ostreamIT_T0_ES6_PKS3_l(%"class.std::basic_ostream"* nonnull align 8 dereferenceable(8) @_ZSt4cout, i8* nonnull %1, i64 1)
  call void @llvm.lifetime.end.p0i8(i64 1, i8* nonnull %1)
  %81 = icmp sgt i64 %77, 0
  %82 = add nsw i64 %77, -1
  br i1 %81, label %76, label %83, !llvm.loop !13

83:                                               ; preds = %76, %64
  call void @llvm.lifetime.end.p0i8(i64 20, i8* nonnull %9) #9
  call void @llvm.lifetime.end.p0i8(i64 25, i8* nonnull %8) #9
  call void @llvm.lifetime.end.p0i8(i64 4, i8* nonnull %7) #9
  call void @llvm.lifetime.end.p0i8(i64 4, i8* nonnull %6) #9
  ret i32 0
}

; Function Attrs: argmemonly mustprogress nofree nosync nounwind willreturn
declare void @llvm.lifetime.start.p0i8(i64 immarg, i8* nocapture) #4

declare nonnull align 8 dereferenceable(16) %"class.std::basic_istream"* @_ZNSirsERi(%"class.std::basic_istream"* nonnull align 8 dereferenceable(16), i32* nonnull align 4 dereferenceable(4)) local_unnamed_addr #0

; Function Attrs: argmemonly mustprogress nofree nounwind readonly willreturn
declare i64 @strlen(i8* nocapture) local_unnamed_addr #5

; Function Attrs: mustprogress nofree nounwind readonly willreturn
declare i32 @islower(i32) local_unnamed_addr #6

; Function Attrs: argmemonly mustprogress nofree nosync nounwind willreturn
declare void @llvm.lifetime.end.p0i8(i64 immarg, i8* nocapture) #4

; Function Attrs: mustprogress nofree nounwind willreturn
declare double @pow(double, double) local_unnamed_addr #7

declare void @_ZSt17__istream_extractRSiPcl(%"class.std::basic_istream"* nonnull align 8 dereferenceable(16), i8*, i64) local_unnamed_addr #0

declare nonnull align 8 dereferenceable(8) %"class.std::basic_ostream"* @_ZSt16__ostream_insertIcSt11char_traitsIcEERSt13basic_ostreamIT_T0_ES6_PKS3_l(%"class.std::basic_ostream"* nonnull align 8 dereferenceable(8), i8*, i64) local_unnamed_addr #0

; Function Attrs: sspstrong uwtable
define internal void @_GLOBAL__sub_I_1268.cpp() #8 section ".text.startup" {
  tail call void @_ZNSt8ios_base4InitC1Ev(%"class.std::ios_base::Init"* nonnull align 1 dereferenceable(1) @_ZStL8__ioinit)
  %1 = tail call i32 @__cxa_atexit(void (i8*)* bitcast (void (%"class.std::ios_base::Init"*)* @_ZNSt8ios_base4InitD1Ev to void (i8*)*), i8* getelementptr inbounds (%"class.std::ios_base::Init", %"class.std::ios_base::Init"* @_ZStL8__ioinit, i64 0, i32 0), i8* nonnull @__dso_handle) #9
  ret void
}


!llvm.module.flags = !{!0, !1, !2, !3}
!llvm.ident = !{!4}

!0 = !{i32 1, !"wchar_size", i32 4}
!1 = !{i32 7, !"PIC Level", i32 2}
!2 = !{i32 7, !"PIE Level", i32 2}
!3 = !{i32 7, !"uwtable", i32 1}
!4 = !{!"clang version 13.0.0"}
!5 = !{!6, !6, i64 0}
!6 = !{!"int", !7, i64 0}
!7 = !{!"omnipotent char", !8, i64 0}
!8 = !{!"Simple C++ TBAA"}
!9 = !{!7, !7, i64 0}
!10 = distinct !{!10, !11}
!11 = !{!"llvm.loop.mustprogress"}
!12 = distinct !{!12, !11}
!13 = distinct !{!13, !11}
